; ModuleID = '24/2560.c'
source_filename = "24/2560.c"
target datalayout = "e-m:e-p270:32:32-p271:32:32-p272:64:64-i64:64-f80:128-n8:16:32:64-S128"
target triple = "x86_64-pc-linux-gnu"

@.str = private unnamed_addr constant [3 x i8] c"%d\00", align 1
@.str.1 = private unnamed_addr constant [3 x i8] c"%s\00", align 1
@.str.2 = private unnamed_addr constant [4 x i8] c"%s\0A\00", align 1

; Function Attrs: noinline nounwind uwtable
define dso_local i32 @main() #0 {
  %1 = alloca i32, align 4
  %2 = alloca i32, align 4
  %3 = alloca [300 x [100 x i8]], align 16
  %4 = alloca [300 x i32], align 16
  %5 = alloca i32, align 4
  %6 = alloca i32, align 4
  %7 = alloca i32, align 4
  %8 = alloca i32, align 4
  store i32 0, i32* %1, align 4
  %9 = bitcast [300 x [100 x i8]]* %3 to i8*
  call void @llvm.memset.p0i8.i64(i8* align 16 %9, i8 0, i64 30000, i1 false)
  %10 = bitcast [300 x i32]* %4 to i8*
  call void @llvm.memset.p0i8.i64(i8* align 16 %10, i8 0, i64 1200, i1 false)
  store i32 0, i32* %7, align 4
  store i32 100, i32* %8, align 4
  %11 = call i32 (i8*, ...) @__isoc99_scanf(i8* getelementptr inbounds ([3 x i8], [3 x i8]* @.str, i64 0, i64 0), i32* %2)
  store i32 0, i32* %5, align 4
  br label %12

12:                                               ; preds = %22, %0
  %13 = load i32, i32* %5, align 4
  %14 = load i32, i32* %2, align 4
  %15 = icmp slt i32 %13, %14
  br i1 %15, label %16, label %25

16:                                               ; preds = %12
  %17 = load i32, i32* %5, align 4
  %18 = sext i32 %17 to i64
  %19 = getelementptr inbounds [300 x [100 x i8]], [300 x [100 x i8]]* %3, i64 0, i64 %18
  %20 = getelementptr inbounds [100 x i8], [100 x i8]* %19, i64 0, i64 0
  %21 = call i32 (i8*, ...) @__isoc99_scanf(i8* getelementptr inbounds ([3 x i8], [3 x i8]* @.str.1, i64 0, i64 0), i8* %20)
  br label %22

22:                                               ; preds = %16
  %23 = load i32, i32* %5, align 4
  %24 = add nsw i32 %23, 1
  store i32 %24, i32* %5, align 4
  br label %12

25:                                               ; preds = %12
  store i32 0, i32* %5, align 4
  br label %26

26:                                               ; preds = %40, %25
  %27 = load i32, i32* %5, align 4
  %28 = load i32, i32* %2, align 4
  %29 = icmp slt i32 %27, %28
  br i1 %29, label %30, label %43

30:                                               ; preds = %26
  %31 = load i32, i32* %5, align 4
  %32 = sext i32 %31 to i64
  %33 = getelementptr inbounds [300 x [100 x i8]], [300 x [100 x i8]]* %3, i64 0, i64 %32
  %34 = getelementptr inbounds [100 x i8], [100 x i8]* %33, i64 0, i64 0
  %35 = call i64 @strlen(i8* %34) #4
  %36 = trunc i64 %35 to i32
  %37 = load i32, i32* %5, align 4
  %38 = sext i32 %37 to i64
  %39 = getelementptr inbounds [300 x i32], [300 x i32]* %4, i64 0, i64 %38
  store i32 %36, i32* %39, align 4
  br label %40

40:                                               ; preds = %30
  %41 = load i32, i32* %5, align 4
  %42 = add nsw i32 %41, 1
  store i32 %42, i32* %5, align 4
  br label %26

43:                                               ; preds = %26
  store i32 0, i32* %5, align 4
  br label %44

44:                                               ; preds = %73, %43
  %45 = load i32, i32* %5, align 4
  %46 = load i32, i32* %2, align 4
  %47 = icmp slt i32 %45, %46
  br i1 %47, label %48, label %76

48:                                               ; preds = %44
  %49 = load i32, i32* %7, align 4
  %50 = load i32, i32* %5, align 4
  %51 = sext i32 %50 to i64
  %52 = getelementptr inbounds [300 x i32], [300 x i32]* %4, i64 0, i64 %51
  %53 = load i32, i32* %52, align 4
  %54 = icmp slt i32 %49, %53
  br i1 %54, label %55, label %60

55:                                               ; preds = %48
  %56 = load i32, i32* %5, align 4
  %57 = sext i32 %56 to i64
  %58 = getelementptr inbounds [300 x i32], [300 x i32]* %4, i64 0, i64 %57
  %59 = load i32, i32* %58, align 4
  store i32 %59, i32* %7, align 4
  br label %60

60:                                               ; preds = %55, %48
  %61 = load i32, i32* %8, align 4
  %62 = load i32, i32* %5, align 4
  %63 = sext i32 %62 to i64
  %64 = getelementptr inbounds [300 x i32], [300 x i32]* %4, i64 0, i64 %63
  %65 = load i32, i32* %64, align 4
  %66 = icmp sgt i32 %61, %65
  br i1 %66, label %67, label %72

67:                                               ; preds = %60
  %68 = load i32, i32* %5, align 4
  %69 = sext i32 %68 to i64
  %70 = getelementptr inbounds [300 x i32], [300 x i32]* %4, i64 0, i64 %69
  %71 = load i32, i32* %70, align 4
  store i32 %71, i32* %8, align 4
  br label %72

72:                                               ; preds = %67, %60
  br label %73

73:                                               ; preds = %72
  %74 = load i32, i32* %5, align 4
  %75 = add nsw i32 %74, 1
  store i32 %75, i32* %5, align 4
  br label %44

76:                                               ; preds = %44
  store i32 0, i32* %5, align 4
  br label %77

77:                                               ; preds = %95, %76
  %78 = load i32, i32* %5, align 4
  %79 = load i32, i32* %2, align 4
  %80 = icmp slt i32 %78, %79
  br i1 %80, label %81, label %98

81:                                               ; preds = %77
  %82 = load i32, i32* %5, align 4
  %83 = sext i32 %82 to i64
  %84 = getelementptr inbounds [300 x i32], [300 x i32]* %4, i64 0, i64 %83
  %85 = load i32, i32* %84, align 4
  %86 = load i32, i32* %7, align 4
  %87 = icmp eq i32 %85, %86
  br i1 %87, label %88, label %94

88:                                               ; preds = %81
  %89 = load i32, i32* %5, align 4
  %90 = sext i32 %89 to i64
  %91 = getelementptr inbounds [300 x [100 x i8]], [300 x [100 x i8]]* %3, i64 0, i64 %90
  %92 = getelementptr inbounds [100 x i8], [100 x i8]* %91, i64 0, i64 0
  %93 = call i32 (i8*, ...) @printf(i8* getelementptr inbounds ([4 x i8], [4 x i8]* @.str.2, i64 0, i64 0), i8* %92)
  br label %98

94:                                               ; preds = %81
  br label %95

95:                                               ; preds = %94
  %96 = load i32, i32* %5, align 4
  %97 = add nsw i32 %96, 1
  store i32 %97, i32* %5, align 4
  br label %77

98:                                               ; preds = %88, %77
  store i32 0, i32* %5, align 4
  br label %99

99:                                               ; preds = %117, %98
  %100 = load i32, i32* %5, align 4
  %101 = load i32, i32* %2, align 4
  %102 = icmp slt i32 %100, %101
  br i1 %102, label %103, label %120

103:                                              ; preds = %99
  %104 = load i32, i32* %5, align 4
  %105 = sext i32 %104 to i64
  %106 = getelementptr inbounds [300 x i32], [300 x i32]* %4, i64 0, i64 %105
  %107 = load i32, i32* %106, align 4
  %108 = load i32, i32* %8, align 4
  %109 = icmp eq i32 %107, %108
  br i1 %109, label %110, label %116

110:                                              ; preds = %103
  %111 = load i32, i32* %5, align 4
  %112 = sext i32 %111 to i64
  %113 = getelementptr inbounds [300 x [100 x i8]], [300 x [100 x i8]]* %3, i64 0, i64 %112
  %114 = getelementptr inbounds [100 x i8], [100 x i8]* %113, i64 0, i64 0
  %115 = call i32 (i8*, ...) @printf(i8* getelementptr inbounds ([4 x i8], [4 x i8]* @.str.2, i64 0, i64 0), i8* %114)
  br label %120

116:                                              ; preds = %103
  br label %117

117:                                              ; preds = %116
  %118 = load i32, i32* %5, align 4
  %119 = add nsw i32 %118, 1
  store i32 %119, i32* %5, align 4
  br label %99

120:                                              ; preds = %110, %99
  ret i32 0
}

; Function Attrs: argmemonly nounwind willreturn
declare void @llvm.memset.p0i8.i64(i8* nocapture writeonly, i8, i64, i1 immarg) #1

declare dso_local i32 @__isoc99_scanf(i8*, ...) #2

; Function Attrs: nounwind readonly
declare dso_local i64 @strlen(i8*) #3

declare dso_local i32 @printf(i8*, ...) #2


!llvm.module.flags = !{!0}
!llvm.ident = !{!1}

!0 = !{i32 1, !"wchar_size", i32 4}
!1 = !{!"clang version 10.0.0-4ubuntu1 "}
